
Atmega32_Drivers.elf:     file format elf32-avr

Sections:
Idx Name          Size      VMA       LMA       File off  Algn
  0 .text         000004a2  00000000  00000000  00000074  2**1
                  CONTENTS, ALLOC, LOAD, READONLY, CODE
  1 .data         00000000  00800060  00800060  00000516  2**0
                  CONTENTS, ALLOC, LOAD, DATA
  2 .bss          00000014  00800060  00800060  00000516  2**0
                  ALLOC
  3 .comment      00000030  00000000  00000000  00000516  2**0
                  CONTENTS, READONLY
  4 .note.gnu.avr.deviceinfo 0000003c  00000000  00000000  00000548  2**2
                  CONTENTS, READONLY
  5 .debug_aranges 00000210  00000000  00000000  00000584  2**0
                  CONTENTS, READONLY, DEBUGGING
  6 .debug_info   00001c8b  00000000  00000000  00000794  2**0
                  CONTENTS, READONLY, DEBUGGING
  7 .debug_abbrev 00000e0c  00000000  00000000  0000241f  2**0
                  CONTENTS, READONLY, DEBUGGING
  8 .debug_line   00001445  00000000  00000000  0000322b  2**0
                  CONTENTS, READONLY, DEBUGGING
  9 .debug_frame  0000081c  00000000  00000000  00004670  2**2
                  CONTENTS, READONLY, DEBUGGING
 10 .debug_str    00000c18  00000000  00000000  00004e8c  2**0
                  CONTENTS, READONLY, DEBUGGING
 11 .debug_loc    00001480  00000000  00000000  00005aa4  2**0
                  CONTENTS, READONLY, DEBUGGING
 12 .debug_ranges 000001a0  00000000  00000000  00006f24  2**0
                  CONTENTS, READONLY, DEBUGGING

Disassembly of section .text:

00000000 <__vectors>:
   0:	0c 94 2a 00 	jmp	0x54	; 0x54 <__ctors_end>
   4:	0c 94 3e 00 	jmp	0x7c	; 0x7c <__vector_1>
   8:	0c 94 65 00 	jmp	0xca	; 0xca <__vector_2>
   c:	0c 94 8c 00 	jmp	0x118	; 0x118 <__vector_3>
  10:	0c 94 3c 00 	jmp	0x78	; 0x78 <__bad_interrupt>
  14:	0c 94 3c 00 	jmp	0x78	; 0x78 <__bad_interrupt>
  18:	0c 94 3c 00 	jmp	0x78	; 0x78 <__bad_interrupt>
  1c:	0c 94 07 01 	jmp	0x20e	; 0x20e <__vector_7>
  20:	0c 94 31 01 	jmp	0x262	; 0x262 <__vector_8>
  24:	0c 94 dd 00 	jmp	0x1ba	; 0x1ba <__vector_9>
  28:	0c 94 85 01 	jmp	0x30a	; 0x30a <__vector_10>
  2c:	0c 94 af 01 	jmp	0x35e	; 0x35e <__vector_11>
  30:	0c 94 5b 01 	jmp	0x2b6	; 0x2b6 <__vector_12>
  34:	0c 94 d9 01 	jmp	0x3b2	; 0x3b2 <__vector_13>
  38:	0c 94 00 02 	jmp	0x400	; 0x400 <__vector_14>
  3c:	0c 94 27 02 	jmp	0x44e	; 0x44e <__vector_15>
  40:	0c 94 3c 00 	jmp	0x78	; 0x78 <__bad_interrupt>
  44:	0c 94 3c 00 	jmp	0x78	; 0x78 <__bad_interrupt>
  48:	0c 94 3c 00 	jmp	0x78	; 0x78 <__bad_interrupt>
  4c:	0c 94 b3 00 	jmp	0x166	; 0x166 <__vector_19>
  50:	0c 94 3c 00 	jmp	0x78	; 0x78 <__bad_interrupt>

00000054 <__ctors_end>:
  54:	11 24       	eor	r1, r1
  56:	1f be       	out	0x3f, r1	; 63
  58:	cf e5       	ldi	r28, 0x5F	; 95
  5a:	d8 e0       	ldi	r29, 0x08	; 8
  5c:	de bf       	out	0x3e, r29	; 62
  5e:	cd bf       	out	0x3d, r28	; 61

00000060 <__do_clear_bss>:
  60:	20 e0       	ldi	r18, 0x00	; 0
  62:	a0 e6       	ldi	r26, 0x60	; 96
  64:	b0 e0       	ldi	r27, 0x00	; 0
  66:	01 c0       	rjmp	.+2      	; 0x6a <.do_clear_bss_start>

00000068 <.do_clear_bss_loop>:
  68:	1d 92       	st	X+, r1

0000006a <.do_clear_bss_start>:
  6a:	a4 37       	cpi	r26, 0x74	; 116
  6c:	b2 07       	cpc	r27, r18
  6e:	e1 f7       	brne	.-8      	; 0x68 <.do_clear_bss_loop>
  70:	0e 94 4e 02 	call	0x49c	; 0x49c <main>
  74:	0c 94 4f 02 	jmp	0x49e	; 0x49e <_exit>

00000078 <__bad_interrupt>:
  78:	0c 94 00 00 	jmp	0	; 0x0 <__vectors>

0000007c <__vector_1>:
 */


void __vector_1 (void) __attribute__((signal));
void __vector_1 (void)
{
  7c:	1f 92       	push	r1
  7e:	0f 92       	push	r0
  80:	0f b6       	in	r0, 0x3f	; 63
  82:	0f 92       	push	r0
  84:	11 24       	eor	r1, r1
  86:	2f 93       	push	r18
  88:	3f 93       	push	r19
  8a:	4f 93       	push	r20
  8c:	5f 93       	push	r21
  8e:	6f 93       	push	r22
  90:	7f 93       	push	r23
  92:	8f 93       	push	r24
  94:	9f 93       	push	r25
  96:	af 93       	push	r26
  98:	bf 93       	push	r27
  9a:	ef 93       	push	r30
  9c:	ff 93       	push	r31
	//Call function
	GP_IRQ_CALL[0]();
  9e:	e0 91 68 00 	lds	r30, 0x0068	; 0x800068 <GP_IRQ_CALL>
  a2:	f0 91 69 00 	lds	r31, 0x0069	; 0x800069 <GP_IRQ_CALL+0x1>
  a6:	09 95       	icall
}
  a8:	ff 91       	pop	r31
  aa:	ef 91       	pop	r30
  ac:	bf 91       	pop	r27
  ae:	af 91       	pop	r26
  b0:	9f 91       	pop	r25
  b2:	8f 91       	pop	r24
  b4:	7f 91       	pop	r23
  b6:	6f 91       	pop	r22
  b8:	5f 91       	pop	r21
  ba:	4f 91       	pop	r20
  bc:	3f 91       	pop	r19
  be:	2f 91       	pop	r18
  c0:	0f 90       	pop	r0
  c2:	0f be       	out	0x3f, r0	; 63
  c4:	0f 90       	pop	r0
  c6:	1f 90       	pop	r1
  c8:	18 95       	reti

000000ca <__vector_2>:


void __vector_2 (void) __attribute__((signal));
void __vector_2 (void)
{
  ca:	1f 92       	push	r1
  cc:	0f 92       	push	r0
  ce:	0f b6       	in	r0, 0x3f	; 63
  d0:	0f 92       	push	r0
  d2:	11 24       	eor	r1, r1
  d4:	2f 93       	push	r18
  d6:	3f 93       	push	r19
  d8:	4f 93       	push	r20
  da:	5f 93       	push	r21
  dc:	6f 93       	push	r22
  de:	7f 93       	push	r23
  e0:	8f 93       	push	r24
  e2:	9f 93       	push	r25
  e4:	af 93       	push	r26
  e6:	bf 93       	push	r27
  e8:	ef 93       	push	r30
  ea:	ff 93       	push	r31
	//Call function
	GP_IRQ_CALL[1]();
  ec:	e0 91 6a 00 	lds	r30, 0x006A	; 0x80006a <GP_IRQ_CALL+0x2>
  f0:	f0 91 6b 00 	lds	r31, 0x006B	; 0x80006b <GP_IRQ_CALL+0x3>
  f4:	09 95       	icall
}
  f6:	ff 91       	pop	r31
  f8:	ef 91       	pop	r30
  fa:	bf 91       	pop	r27
  fc:	af 91       	pop	r26
  fe:	9f 91       	pop	r25
 100:	8f 91       	pop	r24
 102:	7f 91       	pop	r23
 104:	6f 91       	pop	r22
 106:	5f 91       	pop	r21
 108:	4f 91       	pop	r20
 10a:	3f 91       	pop	r19
 10c:	2f 91       	pop	r18
 10e:	0f 90       	pop	r0
 110:	0f be       	out	0x3f, r0	; 63
 112:	0f 90       	pop	r0
 114:	1f 90       	pop	r1
 116:	18 95       	reti

00000118 <__vector_3>:


void __vector_3 (void) __attribute__((signal));
void __vector_3 (void)
{
 118:	1f 92       	push	r1
 11a:	0f 92       	push	r0
 11c:	0f b6       	in	r0, 0x3f	; 63
 11e:	0f 92       	push	r0
 120:	11 24       	eor	r1, r1
 122:	2f 93       	push	r18
 124:	3f 93       	push	r19
 126:	4f 93       	push	r20
 128:	5f 93       	push	r21
 12a:	6f 93       	push	r22
 12c:	7f 93       	push	r23
 12e:	8f 93       	push	r24
 130:	9f 93       	push	r25
 132:	af 93       	push	r26
 134:	bf 93       	push	r27
 136:	ef 93       	push	r30
 138:	ff 93       	push	r31
	//Call function
	GP_IRQ_CALL[2]();
 13a:	e0 91 6c 00 	lds	r30, 0x006C	; 0x80006c <GP_IRQ_CALL+0x4>
 13e:	f0 91 6d 00 	lds	r31, 0x006D	; 0x80006d <GP_IRQ_CALL+0x5>
 142:	09 95       	icall
}
 144:	ff 91       	pop	r31
 146:	ef 91       	pop	r30
 148:	bf 91       	pop	r27
 14a:	af 91       	pop	r26
 14c:	9f 91       	pop	r25
 14e:	8f 91       	pop	r24
 150:	7f 91       	pop	r23
 152:	6f 91       	pop	r22
 154:	5f 91       	pop	r21
 156:	4f 91       	pop	r20
 158:	3f 91       	pop	r19
 15a:	2f 91       	pop	r18
 15c:	0f 90       	pop	r0
 15e:	0f be       	out	0x3f, r0	; 63
 160:	0f 90       	pop	r0
 162:	1f 90       	pop	r1
 164:	18 95       	reti

00000166 <__vector_19>:
 */


void __vector_19 (void) __attribute__((signal));
void __vector_19 (void)
{
 166:	1f 92       	push	r1
 168:	0f 92       	push	r0
 16a:	0f b6       	in	r0, 0x3f	; 63
 16c:	0f 92       	push	r0
 16e:	11 24       	eor	r1, r1
 170:	2f 93       	push	r18
 172:	3f 93       	push	r19
 174:	4f 93       	push	r20
 176:	5f 93       	push	r21
 178:	6f 93       	push	r22
 17a:	7f 93       	push	r23
 17c:	8f 93       	push	r24
 17e:	9f 93       	push	r25
 180:	af 93       	push	r26
 182:	bf 93       	push	r27
 184:	ef 93       	push	r30
 186:	ff 93       	push	r31
	g_I2C_Config->P_IRQ_CALL() ;
 188:	e0 91 60 00 	lds	r30, 0x0060	; 0x800060 <__DATA_REGION_ORIGIN__>
 18c:	f0 91 61 00 	lds	r31, 0x0061	; 0x800061 <__DATA_REGION_ORIGIN__+0x1>
 190:	04 80       	ldd	r0, Z+4	; 0x04
 192:	f5 81       	ldd	r31, Z+5	; 0x05
 194:	e0 2d       	mov	r30, r0
 196:	09 95       	icall
}
 198:	ff 91       	pop	r31
 19a:	ef 91       	pop	r30
 19c:	bf 91       	pop	r27
 19e:	af 91       	pop	r26
 1a0:	9f 91       	pop	r25
 1a2:	8f 91       	pop	r24
 1a4:	7f 91       	pop	r23
 1a6:	6f 91       	pop	r22
 1a8:	5f 91       	pop	r21
 1aa:	4f 91       	pop	r20
 1ac:	3f 91       	pop	r19
 1ae:	2f 91       	pop	r18
 1b0:	0f 90       	pop	r0
 1b2:	0f be       	out	0x3f, r0	; 63
 1b4:	0f 90       	pop	r0
 1b6:	1f 90       	pop	r1
 1b8:	18 95       	reti

000001ba <__vector_9>:
 * ===============================================================
 */

void __vector_9 (void) __attribute__((signal));
void __vector_9 (void)
{
 1ba:	1f 92       	push	r1
 1bc:	0f 92       	push	r0
 1be:	0f b6       	in	r0, 0x3f	; 63
 1c0:	0f 92       	push	r0
 1c2:	11 24       	eor	r1, r1
 1c4:	2f 93       	push	r18
 1c6:	3f 93       	push	r19
 1c8:	4f 93       	push	r20
 1ca:	5f 93       	push	r21
 1cc:	6f 93       	push	r22
 1ce:	7f 93       	push	r23
 1d0:	8f 93       	push	r24
 1d2:	9f 93       	push	r25
 1d4:	af 93       	push	r26
 1d6:	bf 93       	push	r27
 1d8:	ef 93       	push	r30
 1da:	ff 93       	push	r31
	g_PWM_Config->P_TOIE1_CALL();
 1dc:	e0 91 62 00 	lds	r30, 0x0062	; 0x800062 <g_PWM_Config>
 1e0:	f0 91 63 00 	lds	r31, 0x0063	; 0x800063 <g_PWM_Config+0x1>
 1e4:	04 84       	ldd	r0, Z+12	; 0x0c
 1e6:	f5 85       	ldd	r31, Z+13	; 0x0d
 1e8:	e0 2d       	mov	r30, r0
 1ea:	09 95       	icall
}
 1ec:	ff 91       	pop	r31
 1ee:	ef 91       	pop	r30
 1f0:	bf 91       	pop	r27
 1f2:	af 91       	pop	r26
 1f4:	9f 91       	pop	r25
 1f6:	8f 91       	pop	r24
 1f8:	7f 91       	pop	r23
 1fa:	6f 91       	pop	r22
 1fc:	5f 91       	pop	r21
 1fe:	4f 91       	pop	r20
 200:	3f 91       	pop	r19
 202:	2f 91       	pop	r18
 204:	0f 90       	pop	r0
 206:	0f be       	out	0x3f, r0	; 63
 208:	0f 90       	pop	r0
 20a:	1f 90       	pop	r1
 20c:	18 95       	reti

0000020e <__vector_7>:

void __vector_7 (void) __attribute__((signal));
void __vector_7 (void)
{
 20e:	1f 92       	push	r1
 210:	0f 92       	push	r0
 212:	0f b6       	in	r0, 0x3f	; 63
 214:	0f 92       	push	r0
 216:	11 24       	eor	r1, r1
 218:	2f 93       	push	r18
 21a:	3f 93       	push	r19
 21c:	4f 93       	push	r20
 21e:	5f 93       	push	r21
 220:	6f 93       	push	r22
 222:	7f 93       	push	r23
 224:	8f 93       	push	r24
 226:	9f 93       	push	r25
 228:	af 93       	push	r26
 22a:	bf 93       	push	r27
 22c:	ef 93       	push	r30
 22e:	ff 93       	push	r31
	g_PWM_Config->P_OCIE1A_CALL();
 230:	e0 91 62 00 	lds	r30, 0x0062	; 0x800062 <g_PWM_Config>
 234:	f0 91 63 00 	lds	r31, 0x0063	; 0x800063 <g_PWM_Config+0x1>
 238:	06 84       	ldd	r0, Z+14	; 0x0e
 23a:	f7 85       	ldd	r31, Z+15	; 0x0f
 23c:	e0 2d       	mov	r30, r0
 23e:	09 95       	icall
}
 240:	ff 91       	pop	r31
 242:	ef 91       	pop	r30
 244:	bf 91       	pop	r27
 246:	af 91       	pop	r26
 248:	9f 91       	pop	r25
 24a:	8f 91       	pop	r24
 24c:	7f 91       	pop	r23
 24e:	6f 91       	pop	r22
 250:	5f 91       	pop	r21
 252:	4f 91       	pop	r20
 254:	3f 91       	pop	r19
 256:	2f 91       	pop	r18
 258:	0f 90       	pop	r0
 25a:	0f be       	out	0x3f, r0	; 63
 25c:	0f 90       	pop	r0
 25e:	1f 90       	pop	r1
 260:	18 95       	reti

00000262 <__vector_8>:

void __vector_8 (void) __attribute__((signal));
void __vector_8 (void)
{
 262:	1f 92       	push	r1
 264:	0f 92       	push	r0
 266:	0f b6       	in	r0, 0x3f	; 63
 268:	0f 92       	push	r0
 26a:	11 24       	eor	r1, r1
 26c:	2f 93       	push	r18
 26e:	3f 93       	push	r19
 270:	4f 93       	push	r20
 272:	5f 93       	push	r21
 274:	6f 93       	push	r22
 276:	7f 93       	push	r23
 278:	8f 93       	push	r24
 27a:	9f 93       	push	r25
 27c:	af 93       	push	r26
 27e:	bf 93       	push	r27
 280:	ef 93       	push	r30
 282:	ff 93       	push	r31
	g_PWM_Config->P_OCIE1B_CALL();
 284:	e0 91 62 00 	lds	r30, 0x0062	; 0x800062 <g_PWM_Config>
 288:	f0 91 63 00 	lds	r31, 0x0063	; 0x800063 <g_PWM_Config+0x1>
 28c:	00 88       	ldd	r0, Z+16	; 0x10
 28e:	f1 89       	ldd	r31, Z+17	; 0x11
 290:	e0 2d       	mov	r30, r0
 292:	09 95       	icall
}
 294:	ff 91       	pop	r31
 296:	ef 91       	pop	r30
 298:	bf 91       	pop	r27
 29a:	af 91       	pop	r26
 29c:	9f 91       	pop	r25
 29e:	8f 91       	pop	r24
 2a0:	7f 91       	pop	r23
 2a2:	6f 91       	pop	r22
 2a4:	5f 91       	pop	r21
 2a6:	4f 91       	pop	r20
 2a8:	3f 91       	pop	r19
 2aa:	2f 91       	pop	r18
 2ac:	0f 90       	pop	r0
 2ae:	0f be       	out	0x3f, r0	; 63
 2b0:	0f 90       	pop	r0
 2b2:	1f 90       	pop	r1
 2b4:	18 95       	reti

000002b6 <__vector_12>:
 */


void __vector_12 (void) __attribute__((signal));
void __vector_12 (void)
{
 2b6:	1f 92       	push	r1
 2b8:	0f 92       	push	r0
 2ba:	0f b6       	in	r0, 0x3f	; 63
 2bc:	0f 92       	push	r0
 2be:	11 24       	eor	r1, r1
 2c0:	2f 93       	push	r18
 2c2:	3f 93       	push	r19
 2c4:	4f 93       	push	r20
 2c6:	5f 93       	push	r21
 2c8:	6f 93       	push	r22
 2ca:	7f 93       	push	r23
 2cc:	8f 93       	push	r24
 2ce:	9f 93       	push	r25
 2d0:	af 93       	push	r26
 2d2:	bf 93       	push	r27
 2d4:	ef 93       	push	r30
 2d6:	ff 93       	push	r31
	g_SPI_Config->P_IRQ_CALL() ;
 2d8:	e0 91 64 00 	lds	r30, 0x0064	; 0x800064 <g_SPI_Config>
 2dc:	f0 91 65 00 	lds	r31, 0x0065	; 0x800065 <g_SPI_Config+0x1>
 2e0:	07 80       	ldd	r0, Z+7	; 0x07
 2e2:	f0 85       	ldd	r31, Z+8	; 0x08
 2e4:	e0 2d       	mov	r30, r0
 2e6:	09 95       	icall
}
 2e8:	ff 91       	pop	r31
 2ea:	ef 91       	pop	r30
 2ec:	bf 91       	pop	r27
 2ee:	af 91       	pop	r26
 2f0:	9f 91       	pop	r25
 2f2:	8f 91       	pop	r24
 2f4:	7f 91       	pop	r23
 2f6:	6f 91       	pop	r22
 2f8:	5f 91       	pop	r21
 2fa:	4f 91       	pop	r20
 2fc:	3f 91       	pop	r19
 2fe:	2f 91       	pop	r18
 300:	0f 90       	pop	r0
 302:	0f be       	out	0x3f, r0	; 63
 304:	0f 90       	pop	r0
 306:	1f 90       	pop	r1
 308:	18 95       	reti

0000030a <__vector_10>:
 * ===============================================================
 */

void __vector_10 (void) __attribute__((signal));
void __vector_10 (void)
{
 30a:	1f 92       	push	r1
 30c:	0f 92       	push	r0
 30e:	0f b6       	in	r0, 0x3f	; 63
 310:	0f 92       	push	r0
 312:	11 24       	eor	r1, r1
 314:	2f 93       	push	r18
 316:	3f 93       	push	r19
 318:	4f 93       	push	r20
 31a:	5f 93       	push	r21
 31c:	6f 93       	push	r22
 31e:	7f 93       	push	r23
 320:	8f 93       	push	r24
 322:	9f 93       	push	r25
 324:	af 93       	push	r26
 326:	bf 93       	push	r27
 328:	ef 93       	push	r30
 32a:	ff 93       	push	r31
	g_TIM0_Config->P_OCIE0_CALL();
 32c:	e0 91 66 00 	lds	r30, 0x0066	; 0x800066 <g_TIM0_Config>
 330:	f0 91 67 00 	lds	r31, 0x0067	; 0x800067 <g_TIM0_Config+0x1>
 334:	00 84       	ldd	r0, Z+8	; 0x08
 336:	f1 85       	ldd	r31, Z+9	; 0x09
 338:	e0 2d       	mov	r30, r0
 33a:	09 95       	icall
}
 33c:	ff 91       	pop	r31
 33e:	ef 91       	pop	r30
 340:	bf 91       	pop	r27
 342:	af 91       	pop	r26
 344:	9f 91       	pop	r25
 346:	8f 91       	pop	r24
 348:	7f 91       	pop	r23
 34a:	6f 91       	pop	r22
 34c:	5f 91       	pop	r21
 34e:	4f 91       	pop	r20
 350:	3f 91       	pop	r19
 352:	2f 91       	pop	r18
 354:	0f 90       	pop	r0
 356:	0f be       	out	0x3f, r0	; 63
 358:	0f 90       	pop	r0
 35a:	1f 90       	pop	r1
 35c:	18 95       	reti

0000035e <__vector_11>:

void __vector_11 (void) __attribute__((signal));
void __vector_11 (void)
{
 35e:	1f 92       	push	r1
 360:	0f 92       	push	r0
 362:	0f b6       	in	r0, 0x3f	; 63
 364:	0f 92       	push	r0
 366:	11 24       	eor	r1, r1
 368:	2f 93       	push	r18
 36a:	3f 93       	push	r19
 36c:	4f 93       	push	r20
 36e:	5f 93       	push	r21
 370:	6f 93       	push	r22
 372:	7f 93       	push	r23
 374:	8f 93       	push	r24
 376:	9f 93       	push	r25
 378:	af 93       	push	r26
 37a:	bf 93       	push	r27
 37c:	ef 93       	push	r30
 37e:	ff 93       	push	r31
	g_TIM0_Config->P_TOIE0_CALL();
 380:	e0 91 66 00 	lds	r30, 0x0066	; 0x800066 <g_TIM0_Config>
 384:	f0 91 67 00 	lds	r31, 0x0067	; 0x800067 <g_TIM0_Config+0x1>
 388:	06 80       	ldd	r0, Z+6	; 0x06
 38a:	f7 81       	ldd	r31, Z+7	; 0x07
 38c:	e0 2d       	mov	r30, r0
 38e:	09 95       	icall
}
 390:	ff 91       	pop	r31
 392:	ef 91       	pop	r30
 394:	bf 91       	pop	r27
 396:	af 91       	pop	r26
 398:	9f 91       	pop	r25
 39a:	8f 91       	pop	r24
 39c:	7f 91       	pop	r23
 39e:	6f 91       	pop	r22
 3a0:	5f 91       	pop	r21
 3a2:	4f 91       	pop	r20
 3a4:	3f 91       	pop	r19
 3a6:	2f 91       	pop	r18
 3a8:	0f 90       	pop	r0
 3aa:	0f be       	out	0x3f, r0	; 63
 3ac:	0f 90       	pop	r0
 3ae:	1f 90       	pop	r1
 3b0:	18 95       	reti

000003b2 <__vector_13>:
 *
 * ===============================================================
 */
void __vector_13 (void) __attribute__((signal));
void __vector_13 (void)
{
 3b2:	1f 92       	push	r1
 3b4:	0f 92       	push	r0
 3b6:	0f b6       	in	r0, 0x3f	; 63
 3b8:	0f 92       	push	r0
 3ba:	11 24       	eor	r1, r1
 3bc:	2f 93       	push	r18
 3be:	3f 93       	push	r19
 3c0:	4f 93       	push	r20
 3c2:	5f 93       	push	r21
 3c4:	6f 93       	push	r22
 3c6:	7f 93       	push	r23
 3c8:	8f 93       	push	r24
 3ca:	9f 93       	push	r25
 3cc:	af 93       	push	r26
 3ce:	bf 93       	push	r27
 3d0:	ef 93       	push	r30
 3d2:	ff 93       	push	r31
	//Call function
	GPU_IRQ_CALL[2]();
 3d4:	e0 91 72 00 	lds	r30, 0x0072	; 0x800072 <GPU_IRQ_CALL+0x4>
 3d8:	f0 91 73 00 	lds	r31, 0x0073	; 0x800073 <GPU_IRQ_CALL+0x5>
 3dc:	09 95       	icall
}
 3de:	ff 91       	pop	r31
 3e0:	ef 91       	pop	r30
 3e2:	bf 91       	pop	r27
 3e4:	af 91       	pop	r26
 3e6:	9f 91       	pop	r25
 3e8:	8f 91       	pop	r24
 3ea:	7f 91       	pop	r23
 3ec:	6f 91       	pop	r22
 3ee:	5f 91       	pop	r21
 3f0:	4f 91       	pop	r20
 3f2:	3f 91       	pop	r19
 3f4:	2f 91       	pop	r18
 3f6:	0f 90       	pop	r0
 3f8:	0f be       	out	0x3f, r0	; 63
 3fa:	0f 90       	pop	r0
 3fc:	1f 90       	pop	r1
 3fe:	18 95       	reti

00000400 <__vector_14>:

void __vector_14 (void) __attribute__((signal));
void __vector_14 (void)
{
 400:	1f 92       	push	r1
 402:	0f 92       	push	r0
 404:	0f b6       	in	r0, 0x3f	; 63
 406:	0f 92       	push	r0
 408:	11 24       	eor	r1, r1
 40a:	2f 93       	push	r18
 40c:	3f 93       	push	r19
 40e:	4f 93       	push	r20
 410:	5f 93       	push	r21
 412:	6f 93       	push	r22
 414:	7f 93       	push	r23
 416:	8f 93       	push	r24
 418:	9f 93       	push	r25
 41a:	af 93       	push	r26
 41c:	bf 93       	push	r27
 41e:	ef 93       	push	r30
 420:	ff 93       	push	r31
	//Call function
	GPU_IRQ_CALL[1]();
 422:	e0 91 70 00 	lds	r30, 0x0070	; 0x800070 <GPU_IRQ_CALL+0x2>
 426:	f0 91 71 00 	lds	r31, 0x0071	; 0x800071 <GPU_IRQ_CALL+0x3>
 42a:	09 95       	icall
}
 42c:	ff 91       	pop	r31
 42e:	ef 91       	pop	r30
 430:	bf 91       	pop	r27
 432:	af 91       	pop	r26
 434:	9f 91       	pop	r25
 436:	8f 91       	pop	r24
 438:	7f 91       	pop	r23
 43a:	6f 91       	pop	r22
 43c:	5f 91       	pop	r21
 43e:	4f 91       	pop	r20
 440:	3f 91       	pop	r19
 442:	2f 91       	pop	r18
 444:	0f 90       	pop	r0
 446:	0f be       	out	0x3f, r0	; 63
 448:	0f 90       	pop	r0
 44a:	1f 90       	pop	r1
 44c:	18 95       	reti

0000044e <__vector_15>:

void __vector_15 (void) __attribute__((signal));
void __vector_15 (void)
{
 44e:	1f 92       	push	r1
 450:	0f 92       	push	r0
 452:	0f b6       	in	r0, 0x3f	; 63
 454:	0f 92       	push	r0
 456:	11 24       	eor	r1, r1
 458:	2f 93       	push	r18
 45a:	3f 93       	push	r19
 45c:	4f 93       	push	r20
 45e:	5f 93       	push	r21
 460:	6f 93       	push	r22
 462:	7f 93       	push	r23
 464:	8f 93       	push	r24
 466:	9f 93       	push	r25
 468:	af 93       	push	r26
 46a:	bf 93       	push	r27
 46c:	ef 93       	push	r30
 46e:	ff 93       	push	r31
	//Call function
	GPU_IRQ_CALL[0]();
 470:	e0 91 6e 00 	lds	r30, 0x006E	; 0x80006e <GPU_IRQ_CALL>
 474:	f0 91 6f 00 	lds	r31, 0x006F	; 0x80006f <GPU_IRQ_CALL+0x1>
 478:	09 95       	icall
}
 47a:	ff 91       	pop	r31
 47c:	ef 91       	pop	r30
 47e:	bf 91       	pop	r27
 480:	af 91       	pop	r26
 482:	9f 91       	pop	r25
 484:	8f 91       	pop	r24
 486:	7f 91       	pop	r23
 488:	6f 91       	pop	r22
 48a:	5f 91       	pop	r21
 48c:	4f 91       	pop	r20
 48e:	3f 91       	pop	r19
 490:	2f 91       	pop	r18
 492:	0f 90       	pop	r0
 494:	0f be       	out	0x3f, r0	; 63
 496:	0f 90       	pop	r0
 498:	1f 90       	pop	r1
 49a:	18 95       	reti

0000049c <main>:
#include "Servo_Motor.h"



int main(void)
{		
 49c:	ff cf       	rjmp	.-2      	; 0x49c <main>

0000049e <_exit>:
 49e:	f8 94       	cli

000004a0 <__stop_program>:
 4a0:	ff cf       	rjmp	.-2      	; 0x4a0 <__stop_program>
